; Function Attrs: nounwind uwtable
define noundef i32 @Abc_NtkMfsEdgeSwapEval(ptr noundef %0, ptr noundef %1) local_unnamed_addr #0 {
  %3 = getelementptr i8, ptr %1, i64 28
  %.val9 = load i32, ptr %3, align 4, !tbaa !68
  %4 = icmp sgt i32 %.val9, 0
  br i1 %4, label %.lr.ph, label %.critedge

.lr.ph:                                           ; preds = %2, %.lr.ph
  %.010 = phi i32 [ %6, %.lr.ph ], [ 0, %2 ]
  %5 = tail call i32 @Abc_NtkMfsSolveSatResub(ptr noundef %0, ptr noundef nonnull %1, i32 noundef %.010, i32 noundef 0, i32 noundef 1)
  %6 = add nuw nsw i32 %.010, 1
  %.val = load i32, ptr %3, align 4, !tbaa !68
  %7 = icmp slt i32 %6, %.val
  br i1 %7, label %.lr.ph, label %.critedge, !llvm.loop !106

.critedge:                                        ; preds = %.lr.ph, %2
  ret i32 0
}